target datalayout = "e-m:e-p270:32:32-p271:32:32-p272:64:64-i64:64-i128:128-f80:128-n8:16:32:64-S128"
target triple = "x86_64-pc-linux-gnu"

%struct.AVRational = type { i32, i32 }
%struct.V4L2m2mContext = type { [4096 x i8], i32, %struct.V4L2Context, %struct.V4L2Context, ptr, %union.sem_t, i32, i32, i32, %struct.AVPacket, ptr, ptr, ptr }
%struct.V4L2Context = type { ptr, i32, i32, i32, %struct.v4l2_format, i32, i32, %struct.AVRational, ptr, i32, i32, i32 }
%struct.v4l2_format = type { i32, %union.anon.2 }
%union.anon.2 = type { %struct.v4l2_window, [144 x i8] }
%struct.v4l2_window = type { %struct.v4l2_rect, i32, i32, ptr, i32, ptr, i8 }
%struct.v4l2_rect = type { i32, i32, i32, i32 }
%union.sem_t = type { i64, [24 x i8] }
%struct.AVPacket = type { ptr, i64, i64, ptr, i32, i32, i32, ptr, i32, i64, i64, ptr, ptr, %struct.AVRational }
%struct.v4l2_ext_controls = type { %union.anon.5, i32, i32, i32, [1 x i32], ptr }
%union.anon.5 = type { i32 }
%struct.v4l2_ext_control = type <{ i32, i32, [1 x i32], %union.anon.6 }>
%union.anon.6 = type { i64 }

@.str.47 = private unnamed_addr constant [22 x i8] c"Failed to set %s: %s\0A\00", align 1
@.str.48 = private unnamed_addr constant [18 x i8] c"Encoder: %s = %d\0A\00", align 1

; Function Attrs: inlinehint nounwind uwtable
define internal void @v4l2_set_ext_ctrl(ptr noundef %0, i32 noundef %1, i32 noundef %2, ptr noundef %3, i32 noundef %4) #4 {
  %6 = alloca ptr, align 8
  %7 = alloca i32, align 4
  %8 = alloca i32, align 4
  %9 = alloca ptr, align 8
  %10 = alloca i32, align 4
  %11 = alloca %struct.v4l2_ext_controls, align 8
  %12 = alloca %struct.v4l2_ext_control, align 1
  store ptr %0, ptr %6, align 8, !tbaa !32
  store i32 %1, ptr %7, align 4, !tbaa !31
  store i32 %2, ptr %8, align 4, !tbaa !31
  store ptr %3, ptr %9, align 8, !tbaa !81
  store i32 %4, ptr %10, align 4, !tbaa !31
  call void @llvm.lifetime.start.p0(i64 32, ptr %11) #8
  call void @llvm.memset.p0.i64(ptr align 8 %11, i8 0, i64 32, i1 false)
  call void @llvm.lifetime.start.p0(i64 20, ptr %12) #8
  call void @llvm.memset.p0.i64(ptr align 1 %12, i8 0, i64 20, i1 false)
  %13 = getelementptr inbounds nuw %struct.v4l2_ext_controls, ptr %11, i32 0, i32 0
  store i32 10027008, ptr %13, align 8, !tbaa !52
  %14 = getelementptr inbounds nuw %struct.v4l2_ext_controls, ptr %11, i32 0, i32 5
  store ptr %12, ptr %14, align 8, !tbaa !82
  %15 = getelementptr inbounds nuw %struct.v4l2_ext_controls, ptr %11, i32 0, i32 1
  store i32 1, ptr %15, align 4, !tbaa !85
  %16 = load i32, ptr %8, align 4, !tbaa !31
  %17 = getelementptr inbounds nuw %struct.v4l2_ext_control, ptr %12, i32 0, i32 3
  store i32 %16, ptr %17, align 1, !tbaa !52
  %18 = load i32, ptr %7, align 4, !tbaa !31
  %19 = getelementptr inbounds nuw %struct.v4l2_ext_control, ptr %12, i32 0, i32 0
  store i32 %18, ptr %19, align 1, !tbaa !86
  %20 = load ptr, ptr %6, align 8, !tbaa !32
  %21 = getelementptr inbounds nuw %struct.V4L2m2mContext, ptr %20, i32 0, i32 1
  %22 = load i32, ptr %21, align 8, !tbaa !77
  %23 = call i32 (i32, i64, ...) @ioctl(i32 noundef %22, i64 noundef 3223344712, ptr noundef %11) #8
  %24 = icmp slt i32 %23, 0
  br i1 %24, label %25, label %42

25:                                               ; preds = %5
  %26 = load ptr, ptr %6, align 8, !tbaa !32
  %27 = getelementptr inbounds nuw %struct.V4L2m2mContext, ptr %26, i32 0, i32 4
  %28 = load ptr, ptr %27, align 8, !tbaa !47
  %29 = load i32, ptr %10, align 4, !tbaa !31
  %30 = icmp ne i32 %29, 0
  br i1 %30, label %35, label %31

31:                                               ; preds = %25
  %32 = call ptr @__errno_location() #9
  %33 = load i32, ptr %32, align 4, !tbaa !31
  %34 = icmp ne i32 %33, 22
  br label %35

35:                                               ; preds = %31, %25
  %36 = phi i1 [ true, %25 ], [ %34, %31 ]
  %37 = select i1 %36, i32 24, i32 48
  %38 = load ptr, ptr %9, align 8, !tbaa !81
  %39 = call ptr @__errno_location() #9
  %40 = load i32, ptr %39, align 4, !tbaa !31
  %41 = call ptr @strerror(i32 noundef %40) #8
  call void (ptr, i32, ptr, ...) @av_log(ptr noundef %28, i32 noundef %37, ptr noundef @.str.47, ptr noundef %38, ptr noundef %41)
  br label %48

42:                                               ; preds = %5
  %43 = load ptr, ptr %6, align 8, !tbaa !32
  %44 = getelementptr inbounds nuw %struct.V4L2m2mContext, ptr %43, i32 0, i32 4
  %45 = load ptr, ptr %44, align 8, !tbaa !47
  %46 = load ptr, ptr %9, align 8, !tbaa !81
  %47 = load i32, ptr %8, align 4, !tbaa !31
  call void (ptr, i32, ptr, ...) @av_log(ptr noundef %45, i32 noundef 48, ptr noundef @.str.48, ptr noundef %46, i32 noundef %47)
  br label %48

48:                                               ; preds = %42, %35
  call void @llvm.lifetime.end.p0(i64 20, ptr %12) #8
  call void @llvm.lifetime.end.p0(i64 32, ptr %11) #8
  ret void
}