; Function Attrs: inlinehint nounwind uwtable
define internal fastcc void @v4l2_set_ext_ctrl(ptr noundef readonly captures(none) %0, i32 noundef range(i32 10029514, 10029821) %1, i32 noundef %2, ptr noundef %3, i32 noundef range(i32 0, 2) %4) unnamed_addr #4 {
  %6 = alloca %struct.v4l2_ext_controls, align 8
  %7 = alloca %struct.v4l2_ext_control, align 4
  call void @llvm.lifetime.start.p0(i64 32, ptr nonnull %6) #8
  %8 = getelementptr inbounds nuw i8, ptr %6, i64 8
  call void @llvm.memset.p0.i64(ptr noundef nonnull align 8 dereferenceable(16) %8, i8 0, i64 16, i1 false)
  call void @llvm.lifetime.start.p0(i64 20, ptr nonnull %7) #8
  %9 = getelementptr inbounds nuw i8, ptr %7, i64 4
  call void @llvm.memset.p0.i64(ptr noundef nonnull align 4 dereferenceable(16) %9, i8 0, i64 16, i1 false)
  store i32 10027008, ptr %6, align 8, !tbaa !45
  %10 = getelementptr inbounds nuw i8, ptr %6, i64 24
  store ptr %7, ptr %10, align 8, !tbaa !52
  %11 = getelementptr inbounds nuw i8, ptr %6, i64 4
  store i32 1, ptr %11, align 4, !tbaa !55
  %12 = getelementptr inbounds nuw i8, ptr %7, i64 12
  store i32 %2, ptr %12, align 4, !tbaa !45
  store i32 %1, ptr %7, align 4, !tbaa !56
  %13 = getelementptr inbounds nuw i8, ptr %0, i64 4096
  %14 = load i32, ptr %13, align 8, !tbaa !50
  %15 = call i32 (i32, i64, ...) @ioctl(i32 noundef %14, i64 noundef 3223344712, ptr noundef nonnull %6) #8
  %16 = icmp slt i32 %15, 0
  %17 = getelementptr inbounds nuw i8, ptr %0, i64 4648
  %18 = load ptr, ptr %17, align 8, !tbaa !40
  br i1 %16, label %19, label %27

19:                                               ; preds = %5
  %.not = icmp eq i32 %4, 0
  %20 = tail call ptr @__errno_location() #9
  br i1 %.not, label %21, label %._crit_edge

21:                                               ; preds = %19
  %22 = load i32, ptr %20, align 4, !tbaa !58
  %.not8 = icmp eq i32 %22, 22
  %23 = select i1 %.not8, i32 48, i32 24
  br label %._crit_edge

._crit_edge:                                      ; preds = %19, %21
  %24 = phi i32 [ %23, %21 ], [ 24, %19 ]
  %25 = load i32, ptr %20, align 4, !tbaa !58
  %26 = call ptr @strerror(i32 noundef %25) #8
  call void (ptr, i32, ptr, ...) @av_log(ptr noundef %18, i32 noundef %24, ptr noundef nonnull @.str.47, ptr noundef %3, ptr noundef %26) #8
  br label %28

27:                                               ; preds = %5
  call void (ptr, i32, ptr, ...) @av_log(ptr noundef %18, i32 noundef 48, ptr noundef nonnull @.str.48, ptr noundef %3, i32 noundef %2) #8
  br label %28

28:                                               ; preds = %27, %._crit_edge
  call void @llvm.lifetime.end.p0(i64 20, ptr nonnull %7) #8
  call void @llvm.lifetime.end.p0(i64 32, ptr nonnull %6) #8
  ret void
}